target datalayout = "e-m:e-p270:32:32-p271:32:32-p272:64:64-i64:64-i128:128-f80:128-n8:16:32:64-S128"
target triple = "x86_64-pc-linux-gnu"

%struct.YuvPixel = type { i8, i8, i8 }

@ff_crop_tab = external hidden constant [2304 x i8], align 16

; Function Attrs: nounwind uwtable
define internal i32 @mp_yuv_to_rgb(i32 noundef %0, i32 noundef %1, i32 noundef %2, i32 noundef %3) #1 {
  %5 = alloca i32, align 4
  %6 = alloca i32, align 4
  %7 = alloca i32, align 4
  %8 = alloca i32, align 4
  %9 = alloca i32, align 4
  %10 = alloca ptr, align 8
  %11 = alloca i32, align 4
  %12 = alloca i32, align 4
  %13 = alloca i32, align 4
  %14 = alloca i32, align 4
  store i32 %0, ptr %6, align 4, !tbaa !32
  store i32 %1, ptr %7, align 4, !tbaa !32
  store i32 %2, ptr %8, align 4, !tbaa !32
  store i32 %3, ptr %9, align 4, !tbaa !32
  call void @llvm.lifetime.start.p0(i64 8, ptr %10) #9
  store ptr getelementptr inbounds (i8, ptr @ff_crop_tab, i64 1024), ptr %10, align 8, !tbaa !54
  call void @llvm.lifetime.start.p0(i64 4, ptr %11) #9
  call void @llvm.lifetime.start.p0(i64 4, ptr %12) #9
  call void @llvm.lifetime.start.p0(i64 4, ptr %13) #9
  %15 = load i32, ptr %6, align 4, !tbaa !32
  %16 = mul nsw i32 1000, %15
  %17 = load i32, ptr %7, align 4, !tbaa !32
  %18 = mul nsw i32 701, %17
  %19 = add nsw i32 %16, %18
  %20 = sdiv i32 %19, 1000
  store i32 %20, ptr %11, align 4, !tbaa !32
  %21 = load i32, ptr %6, align 4, !tbaa !32
  %22 = mul nsw i32 1000, %21
  %23 = load i32, ptr %7, align 4, !tbaa !32
  %24 = mul nsw i32 357, %23
  %25 = sub nsw i32 %22, %24
  %26 = load i32, ptr %8, align 4, !tbaa !32
  %27 = mul nsw i32 172, %26
  %28 = sub nsw i32 %25, %27
  %29 = sdiv i32 %28, 1000
  store i32 %29, ptr %12, align 4, !tbaa !32
  %30 = load i32, ptr %6, align 4, !tbaa !32
  %31 = mul nsw i32 1000, %30
  %32 = load i32, ptr %8, align 4, !tbaa !32
  %33 = mul nsw i32 886, %32
  %34 = add nsw i32 %31, %33
  %35 = sdiv i32 %34, 1000
  store i32 %35, ptr %13, align 4, !tbaa !32
  %36 = load i32, ptr %9, align 4, !tbaa !32
  %37 = icmp ne i32 %36, 0
  br i1 %37, label %38, label %67

38:                                               ; preds = %4
  %39 = load ptr, ptr %10, align 8, !tbaa !54
  %40 = load i32, ptr %11, align 4, !tbaa !32
  %41 = mul nsw i32 %40, 8
  %42 = sext i32 %41 to i64
  %43 = getelementptr inbounds i8, ptr %39, i64 %42
  %44 = load i8, ptr %43, align 1, !tbaa !59
  %45 = zext i8 %44 to i32
  %46 = and i32 %45, 248
  %47 = shl i32 %46, 7
  %48 = load ptr, ptr %10, align 8, !tbaa !54
  %49 = load i32, ptr %12, align 4, !tbaa !32
  %50 = mul nsw i32 %49, 8
  %51 = sext i32 %50 to i64
  %52 = getelementptr inbounds i8, ptr %48, i64 %51
  %53 = load i8, ptr %52, align 1, !tbaa !59
  %54 = zext i8 %53 to i32
  %55 = and i32 %54, 248
  %56 = shl i32 %55, 2
  %57 = or i32 %47, %56
  %58 = load ptr, ptr %10, align 8, !tbaa !54
  %59 = load i32, ptr %13, align 4, !tbaa !32
  %60 = mul nsw i32 %59, 8
  %61 = sext i32 %60 to i64
  %62 = getelementptr inbounds i8, ptr %58, i64 %61
  %63 = load i8, ptr %62, align 1, !tbaa !59
  %64 = zext i8 %63 to i32
  %65 = ashr i32 %64, 3
  %66 = or i32 %57, %65
  store i32 %66, ptr %5, align 4
  store i32 1, ptr %14, align 4
  br label %85

67:                                               ; preds = %4
  %68 = load i32, ptr %11, align 4, !tbaa !32
  %69 = icmp ult i32 %68, 32
  br i1 %69, label %70, label %84

70:                                               ; preds = %67
  %71 = load i32, ptr %12, align 4, !tbaa !32
  %72 = icmp ult i32 %71, 32
  br i1 %72, label %73, label %84

73:                                               ; preds = %70
  %74 = load i32, ptr %13, align 4, !tbaa !32
  %75 = icmp ult i32 %74, 32
  br i1 %75, label %76, label %84

76:                                               ; preds = %73
  %77 = load i32, ptr %11, align 4, !tbaa !32
  %78 = shl i32 %77, 10
  %79 = load i32, ptr %12, align 4, !tbaa !32
  %80 = shl i32 %79, 5
  %81 = or i32 %78, %80
  %82 = load i32, ptr %13, align 4, !tbaa !32
  %83 = or i32 %81, %82
  store i32 %83, ptr %5, align 4
  store i32 1, ptr %14, align 4
  br label %85

84:                                               ; preds = %73, %70, %67
  store i32 32768, ptr %5, align 4
  store i32 1, ptr %14, align 4
  br label %85

85:                                               ; preds = %84, %76, %38
  call void @llvm.lifetime.end.p0(i64 4, ptr %13) #9
  call void @llvm.lifetime.end.p0(i64 4, ptr %12) #9
  call void @llvm.lifetime.end.p0(i64 4, ptr %11) #9
  call void @llvm.lifetime.end.p0(i64 8, ptr %10) #9
  %86 = load i32, ptr %5, align 4
  ret i32 %86
}

; Function Attrs: cold nounwind optsize uwtable
define internal void @mp_build_rgb_yuv_table(ptr noundef %0) #0 {
  %2 = alloca ptr, align 8
  %3 = alloca i32, align 4
  %4 = alloca i32, align 4
  %5 = alloca i32, align 4
  %6 = alloca i32, align 4
  store ptr %0, ptr %2, align 8, !tbaa !66
  call void @llvm.lifetime.start.p0(i64 4, ptr %3) #9
  call void @llvm.lifetime.start.p0(i64 4, ptr %4) #9
  call void @llvm.lifetime.start.p0(i64 4, ptr %5) #9
  call void @llvm.lifetime.start.p0(i64 4, ptr %6) #9
  store i32 0, ptr %3, align 4, !tbaa !32
  br label %7

7:                                                ; preds = %81, %1
  %8 = load i32, ptr %3, align 4, !tbaa !32
  %9 = icmp sle i32 %8, 31
  br i1 %9, label %10, label %84

10:                                               ; preds = %7
  store i32 -31, ptr %4, align 4, !tbaa !32
  br label %11

11:                                               ; preds = %77, %10
  %12 = load i32, ptr %4, align 4, !tbaa !32
  %13 = icmp sle i32 %12, 31
  br i1 %13, label %14, label %80

14:                                               ; preds = %11
  store i32 -31, ptr %5, align 4, !tbaa !32
  br label %15

15:                                               ; preds = %73, %14
  %16 = load i32, ptr %5, align 4, !tbaa !32
  %17 = icmp sle i32 %16, 31
  br i1 %17, label %18, label %76

18:                                               ; preds = %15
  %19 = load i32, ptr %3, align 4, !tbaa !32
  %20 = load i32, ptr %4, align 4, !tbaa !32
  %21 = load i32, ptr %5, align 4, !tbaa !32
  %22 = call i32 @mp_yuv_to_rgb(i32 noundef %19, i32 noundef %20, i32 noundef %21, i32 noundef 0)
  store i32 %22, ptr %6, align 4, !tbaa !32
  %23 = load i32, ptr %6, align 4, !tbaa !32
  %24 = icmp slt i32 %23, 32768
  br i1 %24, label %25, label %72

25:                                               ; preds = %18
  %26 = load ptr, ptr %2, align 8, !tbaa !66
  %27 = load i32, ptr %6, align 4, !tbaa !32
  %28 = sext i32 %27 to i64
  %29 = getelementptr inbounds %struct.YuvPixel, ptr %26, i64 %28
  %30 = getelementptr inbounds nuw %struct.YuvPixel, ptr %29, i32 0, i32 2
  %31 = load i8, ptr %30, align 1, !tbaa !67
  %32 = sext i8 %31 to i32
  %33 = load ptr, ptr %2, align 8, !tbaa !66
  %34 = load i32, ptr %6, align 4, !tbaa !32
  %35 = sext i32 %34 to i64
  %36 = getelementptr inbounds %struct.YuvPixel, ptr %33, i64 %35
  %37 = getelementptr inbounds nuw %struct.YuvPixel, ptr %36, i32 0, i32 1
  %38 = load i8, ptr %37, align 1, !tbaa !69
  %39 = sext i8 %38 to i32
  %40 = or i32 %32, %39
  %41 = load ptr, ptr %2, align 8, !tbaa !66
  %42 = load i32, ptr %6, align 4, !tbaa !32
  %43 = sext i32 %42 to i64
  %44 = getelementptr inbounds %struct.YuvPixel, ptr %41, i64 %43
  %45 = getelementptr inbounds nuw %struct.YuvPixel, ptr %44, i32 0, i32 0
  %46 = load i8, ptr %45, align 1, !tbaa !70
  %47 = sext i8 %46 to i32
  %48 = or i32 %40, %47
  %49 = icmp ne i32 %48, 0
  br i1 %49, label %72, label %50

50:                                               ; preds = %25
  %51 = load i32, ptr %3, align 4, !tbaa !32
  %52 = trunc i32 %51 to i8
  %53 = load ptr, ptr %2, align 8, !tbaa !66
  %54 = load i32, ptr %6, align 4, !tbaa !32
  %55 = sext i32 %54 to i64
  %56 = getelementptr inbounds %struct.YuvPixel, ptr %53, i64 %55
  %57 = getelementptr inbounds nuw %struct.YuvPixel, ptr %56, i32 0, i32 0
  store i8 %52, ptr %57, align 1, !tbaa !70
  %58 = load i32, ptr %4, align 4, !tbaa !32
  %59 = trunc i32 %58 to i8
  %60 = load ptr, ptr %2, align 8, !tbaa !66
  %61 = load i32, ptr %6, align 4, !tbaa !32
  %62 = sext i32 %61 to i64
  %63 = getelementptr inbounds %struct.YuvPixel, ptr %60, i64 %62
  %64 = getelementptr inbounds nuw %struct.YuvPixel, ptr %63, i32 0, i32 1
  store i8 %59, ptr %64, align 1, !tbaa !69
  %65 = load i32, ptr %5, align 4, !tbaa !32
  %66 = trunc i32 %65 to i8
  %67 = load ptr, ptr %2, align 8, !tbaa !66
  %68 = load i32, ptr %6, align 4, !tbaa !32
  %69 = sext i32 %68 to i64
  %70 = getelementptr inbounds %struct.YuvPixel, ptr %67, i64 %69
  %71 = getelementptr inbounds nuw %struct.YuvPixel, ptr %70, i32 0, i32 2
  store i8 %66, ptr %71, align 1, !tbaa !67
  br label %72

72:                                               ; preds = %50, %25, %18
  br label %73

73:                                               ; preds = %72
  %74 = load i32, ptr %5, align 4, !tbaa !32
  %75 = add nsw i32 %74, 1
  store i32 %75, ptr %5, align 4, !tbaa !32
  br label %15, !llvm.loop !71

76:                                               ; preds = %15
  br label %77

77:                                               ; preds = %76
  %78 = load i32, ptr %4, align 4, !tbaa !32
  %79 = add nsw i32 %78, 1
  store i32 %79, ptr %4, align 4, !tbaa !32
  br label %11, !llvm.loop !72

80:                                               ; preds = %11
  br label %81

81:                                               ; preds = %80
  %82 = load i32, ptr %3, align 4, !tbaa !32
  %83 = add nsw i32 %82, 1
  store i32 %83, ptr %3, align 4, !tbaa !32
  br label %7, !llvm.loop !73

84:                                               ; preds = %7
  store i32 0, ptr %6, align 4, !tbaa !32
  br label %85

85:                                               ; preds = %94, %84
  %86 = load i32, ptr %6, align 4, !tbaa !32
  %87 = icmp slt i32 %86, 1024
  br i1 %87, label %88, label %97

88:                                               ; preds = %85
  %89 = load ptr, ptr %2, align 8, !tbaa !66
  %90 = load i32, ptr %6, align 4, !tbaa !32
  %91 = mul nsw i32 %90, 32
  %92 = sext i32 %91 to i64
  %93 = getelementptr inbounds %struct.YuvPixel, ptr %89, i64 %92
  call void @mp_set_zero_yuv(ptr noundef %93) #11
  br label %94

94:                                               ; preds = %88
  %95 = load i32, ptr %6, align 4, !tbaa !32
  %96 = add nsw i32 %95, 1
  store i32 %96, ptr %6, align 4, !tbaa !32
  br label %85, !llvm.loop !74

97:                                               ; preds = %85
  call void @llvm.lifetime.end.p0(i64 4, ptr %6) #9
  call void @llvm.lifetime.end.p0(i64 4, ptr %5) #9
  call void @llvm.lifetime.end.p0(i64 4, ptr %4) #9
  call void @llvm.lifetime.end.p0(i64 4, ptr %3) #9
  ret void
}